; Function Attrs: mustprogress nounwind uwtable
define hidden void @_ZN4cvc58internal6theory5arith6linear30ArithEntailmentCheckParametersD2Ev(ptr noundef nonnull readonly align 8 captures(none) dereferenceable(24) %this) unnamed_addr #8 align 2 personality ptr @__gxx_personality_v0 {
entry:
  %0 = load ptr, ptr %this, align 8
  %tobool.not.i.i.i = icmp eq ptr %0, null
  br i1 %tobool.not.i.i.i, label %_ZNSt6vectorIN4cvc58internal6theory5arith6linear11inferbounds19InferBoundAlgorithmESaIS6_EED2Ev.exit, label %if.then.i.i.i

if.then.i.i.i:                                    ; preds = %entry
  tail call void @_ZdlPv(ptr noundef nonnull %0) #23
  br label %_ZNSt6vectorIN4cvc58internal6theory5arith6linear11inferbounds19InferBoundAlgorithmESaIS6_EED2Ev.exit

_ZNSt6vectorIN4cvc58internal6theory5arith6linear11inferbounds19InferBoundAlgorithmESaIS6_EED2Ev.exit: ; preds = %entry, %if.then.i.i.i
  ret void
}